target datalayout = "e-m:e-p270:32:32-p271:32:32-p272:64:64-i64:64-i128:128-f80:128-n8:16:32:64-S128"
target triple = "x86_64-unknown-linux-gnu"

@.str = private unnamed_addr constant [29 x i8] c"Invalid interpolation value.\00", align 1
@_ZTIN19OpenColorIO_v2_4dev9ExceptionE = external constant ptr

; Function Attrs: mustprogress uwtable
define hidden noundef double @_ZN19OpenColorIO_v2_4dev13Interpolate1DEjPKdd(i32 noundef %lutSize, ptr noundef %lutValues, double noundef %in) #4 personality ptr @__gxx_personality_v0 {
entry:
  %retval = alloca double, align 8
  %lutSize.addr = alloca i32, align 4
  %lutValues.addr = alloca ptr, align 8
  %in.addr = alloca double, align 8
  %idx = alloca i32, align 4
  %minIdx = alloca i32, align 4
  %maxIdx = alloca i32, align 4
  %inCoeff = alloca double, align 8
  %exn.slot = alloca ptr, align 8
  %ehselector.slot = alloca i32, align 4
  store i32 %lutSize, ptr %lutSize.addr, align 4
  store ptr %lutValues, ptr %lutValues.addr, align 8
  store double %in, ptr %in.addr, align 8
  %0 = load double, ptr %in.addr, align 8
  %1 = load ptr, ptr %lutValues.addr, align 8
  %arrayidx = getelementptr inbounds double, ptr %1, i64 0
  %2 = load double, ptr %arrayidx, align 8
  %cmp = fcmp olt double %0, %2
  br i1 %cmp, label %if.then, label %if.else

if.then:                                          ; preds = %entry
  %3 = load ptr, ptr %lutValues.addr, align 8
  %arrayidx1 = getelementptr inbounds double, ptr %3, i64 1
  %4 = load double, ptr %arrayidx1, align 8
  store double %4, ptr %retval, align 8
  br label %return

if.else:                                          ; preds = %entry
  %5 = load double, ptr %in.addr, align 8
  %6 = load ptr, ptr %lutValues.addr, align 8
  %7 = load i32, ptr %lutSize.addr, align 4
  %sub = sub i32 %7, 1
  %mul = mul i32 2, %sub
  %idxprom = zext i32 %mul to i64
  %arrayidx2 = getelementptr inbounds double, ptr %6, i64 %idxprom
  %8 = load double, ptr %arrayidx2, align 8
  %cmp3 = fcmp oge double %5, %8
  br i1 %cmp3, label %if.then4, label %if.end

if.then4:                                         ; preds = %if.else
  %9 = load ptr, ptr %lutValues.addr, align 8
  %10 = load i32, ptr %lutSize.addr, align 4
  %sub5 = sub i32 %10, 1
  %mul6 = mul i32 2, %sub5
  %add = add i32 %mul6, 1
  %idxprom7 = zext i32 %add to i64
  %arrayidx8 = getelementptr inbounds double, ptr %9, i64 %idxprom7
  %11 = load double, ptr %arrayidx8, align 8
  store double %11, ptr %retval, align 8
  br label %return

if.end:                                           ; preds = %if.else
  br label %if.end9

if.end9:                                          ; preds = %if.end
  store i32 1, ptr %idx, align 4
  br label %for.cond

for.cond:                                         ; preds = %for.inc, %if.end9
  %12 = load i32, ptr %idx, align 4
  %13 = load i32, ptr %lutSize.addr, align 4
  %cmp10 = icmp ult i32 %12, %13
  br i1 %cmp10, label %for.body, label %for.end

for.body:                                         ; preds = %for.cond
  %14 = load double, ptr %in.addr, align 8
  %15 = load ptr, ptr %lutValues.addr, align 8
  %16 = load i32, ptr %idx, align 4
  %mul11 = mul i32 2, %16
  %idxprom12 = zext i32 %mul11 to i64
  %arrayidx13 = getelementptr inbounds double, ptr %15, i64 %idxprom12
  %17 = load double, ptr %arrayidx13, align 8
  %cmp14 = fcmp olt double %14, %17
  br i1 %cmp14, label %if.then15, label %if.end36

if.then15:                                        ; preds = %for.body
  %18 = load i32, ptr %idx, align 4
  %sub16 = sub i32 %18, 1
  %mul17 = mul i32 2, %sub16
  store i32 %mul17, ptr %minIdx, align 4
  %19 = load i32, ptr %idx, align 4
  %mul18 = mul i32 2, %19
  store i32 %mul18, ptr %maxIdx, align 4
  %20 = load double, ptr %in.addr, align 8
  %21 = load ptr, ptr %lutValues.addr, align 8
  %22 = load i32, ptr %minIdx, align 4
  %idxprom19 = zext i32 %22 to i64
  %arrayidx20 = getelementptr inbounds double, ptr %21, i64 %idxprom19
  %23 = load double, ptr %arrayidx20, align 8
  %sub21 = fsub double %20, %23
  %24 = load ptr, ptr %lutValues.addr, align 8
  %25 = load i32, ptr %maxIdx, align 4
  %idxprom22 = zext i32 %25 to i64
  %arrayidx23 = getelementptr inbounds double, ptr %24, i64 %idxprom22
  %26 = load double, ptr %arrayidx23, align 8
  %27 = load ptr, ptr %lutValues.addr, align 8
  %28 = load i32, ptr %minIdx, align 4
  %idxprom24 = zext i32 %28 to i64
  %arrayidx25 = getelementptr inbounds double, ptr %27, i64 %idxprom24
  %29 = load double, ptr %arrayidx25, align 8
  %sub26 = fsub double %26, %29
  %div = fdiv double %sub21, %sub26
  store double %div, ptr %inCoeff, align 8
  %30 = load ptr, ptr %lutValues.addr, align 8
  %31 = load i32, ptr %minIdx, align 4
  %add27 = add i32 %31, 1
  %idxprom28 = zext i32 %add27 to i64
  %arrayidx29 = getelementptr inbounds double, ptr %30, i64 %idxprom28
  %32 = load double, ptr %arrayidx29, align 8
  %33 = load double, ptr %inCoeff, align 8
  %sub30 = fsub double 1.000000e+00, %33
  %34 = load ptr, ptr %lutValues.addr, align 8
  %35 = load i32, ptr %maxIdx, align 4
  %add32 = add i32 %35, 1
  %idxprom33 = zext i32 %add32 to i64
  %arrayidx34 = getelementptr inbounds double, ptr %34, i64 %idxprom33
  %36 = load double, ptr %arrayidx34, align 8
  %37 = load double, ptr %inCoeff, align 8
  %mul35 = fmul double %36, %37
  %38 = call double @llvm.fmuladd.f64(double %32, double %sub30, double %mul35)
  store double %38, ptr %retval, align 8
  br label %return

if.end36:                                         ; preds = %for.body
  br label %for.inc

for.inc:                                          ; preds = %if.end36
  %39 = load i32, ptr %idx, align 4
  %inc = add i32 %39, 1
  store i32 %inc, ptr %idx, align 4
  br label %for.cond, !llvm.loop !4

for.end:                                          ; preds = %for.cond
  %exception = call ptr @__cxa_allocate_exception(i64 16) #3
  invoke void @_ZN19OpenColorIO_v2_4dev9ExceptionC1EPKc(ptr noundef nonnull align 8 dereferenceable(16) %exception, ptr noundef @.str)
          to label %invoke.cont unwind label %lpad

invoke.cont:                                      ; preds = %for.end
  call void @__cxa_throw(ptr %exception, ptr @_ZTIN19OpenColorIO_v2_4dev9ExceptionE, ptr @_ZN19OpenColorIO_v2_4dev9ExceptionD1Ev) #14
  unreachable

lpad:                                             ; preds = %for.end
  %40 = landingpad { ptr, i32 }
          cleanup
  %41 = extractvalue { ptr, i32 } %40, 0
  store ptr %41, ptr %exn.slot, align 8
  %42 = extractvalue { ptr, i32 } %40, 1
  store i32 %42, ptr %ehselector.slot, align 4
  call void @__cxa_free_exception(ptr %exception) #3
  br label %eh.resume

return:                                           ; preds = %if.then15, %if.then4, %if.then
  %43 = load double, ptr %retval, align 8
  ret double %43

eh.resume:                                        ; preds = %lpad
  %exn = load ptr, ptr %exn.slot, align 8
  %sel = load i32, ptr %ehselector.slot, align 4
  %lpad.val = insertvalue { ptr, i32 } poison, ptr %exn, 0
  %lpad.val37 = insertvalue { ptr, i32 } %lpad.val, i32 %sel, 1
  resume { ptr, i32 } %lpad.val37
}