; Function Attrs: mustprogress uwtable
define hidden noundef double @_ZN19OpenColorIO_v2_4dev13Interpolate1DEjPKdd(i32 noundef %lutSize, ptr nocapture noundef readonly %lutValues, double noundef %in) local_unnamed_addr #3 personality ptr @__gxx_personality_v0 {
entry:
  %0 = load double, ptr %lutValues, align 8
  %cmp = fcmp ogt double %0, %in
  br i1 %cmp, label %if.then, label %if.else

if.then:                                          ; preds = %entry
  %arrayidx1 = getelementptr inbounds i8, ptr %lutValues, i64 8
  %1 = load double, ptr %arrayidx1, align 8
  br label %return

if.else:                                          ; preds = %entry
  %sub = shl i32 %lutSize, 1
  %mul = add i32 %sub, -2
  %idxprom = zext i32 %mul to i64
  %arrayidx2 = getelementptr inbounds double, ptr %lutValues, i64 %idxprom
  %2 = load double, ptr %arrayidx2, align 8
  %cmp3 = fcmp ugt double %2, %in
  br i1 %cmp3, label %for.cond.preheader, label %if.then4

for.cond.preheader:                               ; preds = %if.else
  %cmp1023 = icmp ugt i32 %lutSize, 1
  br i1 %cmp1023, label %for.body.preheader, label %for.end

for.body.preheader:                               ; preds = %for.cond.preheader
  %wide.trip.count = zext i32 %lutSize to i64
  br label %for.body

if.then4:                                         ; preds = %if.else
  %add = add i32 %sub, -1
  %idxprom7 = zext i32 %add to i64
  %arrayidx8 = getelementptr inbounds double, ptr %lutValues, i64 %idxprom7
  %3 = load double, ptr %arrayidx8, align 8
  br label %return

for.cond:                                         ; preds = %for.body
  %indvars.iv.next = add nuw nsw i64 %indvars.iv, 1
  %exitcond.not = icmp eq i64 %indvars.iv.next, %wide.trip.count
  br i1 %exitcond.not, label %for.end, label %for.body, !llvm.loop !4

for.body:                                         ; preds = %for.body.preheader, %for.cond
  %indvars.iv = phi i64 [ 1, %for.body.preheader ], [ %indvars.iv.next, %for.cond ]
  %4 = trunc i64 %indvars.iv to i32
  %mul11 = shl i32 %4, 1
  %idxprom12 = zext i32 %mul11 to i64
  %arrayidx13 = getelementptr inbounds double, ptr %lutValues, i64 %idxprom12
  %5 = load double, ptr %arrayidx13, align 8
  %cmp14 = fcmp ogt double %5, %in
  br i1 %cmp14, label %if.then15, label %for.cond

if.then15:                                        ; preds = %for.body
  %mul17 = add i32 %mul11, -2
  %idxprom19 = zext i32 %mul17 to i64
  %arrayidx20 = getelementptr inbounds double, ptr %lutValues, i64 %idxprom19
  %6 = load double, ptr %arrayidx20, align 8
  %sub21 = fsub double %in, %6
  %sub26 = fsub double %5, %6
  %div = fdiv double %sub21, %sub26
  %add27 = add i32 %mul11, -1
  %idxprom28 = zext i32 %add27 to i64
  %arrayidx29 = getelementptr inbounds double, ptr %lutValues, i64 %idxprom28
  %7 = load double, ptr %arrayidx29, align 8
  %sub30 = fsub double 1.000000e+00, %div
  %add32 = or disjoint i32 %mul11, 1
  %idxprom33 = zext i32 %add32 to i64
  %arrayidx34 = getelementptr inbounds double, ptr %lutValues, i64 %idxprom33
  %8 = load double, ptr %arrayidx34, align 8
  %mul35 = fmul double %8, %div
  %9 = tail call double @llvm.fmuladd.f64(double %7, double %sub30, double %mul35)
  br label %return

for.end:                                          ; preds = %for.cond, %for.cond.preheader
  %exception = tail call ptr @__cxa_allocate_exception(i64 16) #14
  invoke void @_ZN19OpenColorIO_v2_4dev9ExceptionC1EPKc(ptr noundef nonnull align 8 dereferenceable(16) %exception, ptr noundef nonnull @.str)
          to label %invoke.cont unwind label %lpad

invoke.cont:                                      ; preds = %for.end
  tail call void @__cxa_throw(ptr nonnull %exception, ptr nonnull @_ZTIN19OpenColorIO_v2_4dev9ExceptionE, ptr nonnull @_ZN19OpenColorIO_v2_4dev9ExceptionD1Ev) #15
  unreachable

lpad:                                             ; preds = %for.end
  %10 = landingpad { ptr, i32 }
          cleanup
  tail call void @__cxa_free_exception(ptr %exception) #14
  resume { ptr, i32 } %10

return:                                           ; preds = %if.then15, %if.then4, %if.then
  %retval.0 = phi double [ %1, %if.then ], [ %3, %if.then4 ], [ %9, %if.then15 ]
  ret double %retval.0
}